target datalayout = "e-m:e-p270:32:32-p271:32:32-p272:64:64-i64:64-i128:128-f80:128-n8:16:32:64-S128"
target triple = "x86_64-pc-linux-gnu"

%"class.draco::GeometryAttribute" = type { ptr, %"struct.draco::DataBufferDescriptor", i8, i32, i8, i64, i64, i32, i32 }
%"struct.draco::DataBufferDescriptor" = type { i64, i64 }
%"class.draco::DataBuffer" = type { %"class.std::vector", %"struct.draco::DataBufferDescriptor" }
%"class.std::vector" = type { %"struct.std::_Vector_base" }
%"struct.std::_Vector_base" = type { %"struct.std::_Vector_base<unsigned char, std::allocator<unsigned char>>::_Vector_impl" }
%"struct.std::_Vector_base<unsigned char, std::allocator<unsigned char>>::_Vector_impl" = type { %"struct.std::_Vector_base<unsigned char, std::allocator<unsigned char>>::_Vector_impl_data" }
%"struct.std::_Vector_base<unsigned char, std::allocator<unsigned char>>::_Vector_impl_data" = type { ptr, ptr, ptr }

; Function Attrs: mustprogress nounwind uwtable
define linkonce_odr noundef i64 @_ZNK5draco10DataBuffer12update_countEv(ptr noundef nonnull align 8 dereferenceable(40) %0) #1 comdat align 2 {
  %2 = alloca ptr, align 8
  store ptr %0, ptr %2, align 8, !tbaa !28
  %3 = load ptr, ptr %2, align 8
  %4 = getelementptr inbounds nuw %"class.draco::DataBuffer", ptr %3, i32 0, i32 1
  %5 = getelementptr inbounds nuw %"struct.draco::DataBufferDescriptor", ptr %4, i32 0, i32 1
  %6 = load i64, ptr %5, align 8, !tbaa !45
  ret i64 %6
}

; Function Attrs: mustprogress nounwind uwtable
define linkonce_odr noundef i64 @_ZNK5draco10DataBuffer9buffer_idEv(ptr noundef nonnull align 8 dereferenceable(40) %0) #1 comdat align 2 {
  %2 = alloca ptr, align 8
  store ptr %0, ptr %2, align 8, !tbaa !28
  %3 = load ptr, ptr %2, align 8
  %4 = getelementptr inbounds nuw %"class.draco::DataBuffer", ptr %3, i32 0, i32 1
  %5 = getelementptr inbounds nuw %"struct.draco::DataBufferDescriptor", ptr %4, i32 0, i32 0
  %6 = load i64, ptr %5, align 8, !tbaa !38
  ret i64 %6
}

; Function Attrs: mustprogress uwtable
define void @_ZN5draco17GeometryAttribute11ResetBufferEPNS_10DataBufferEll(ptr noundef nonnull align 8 dereferenceable(64) %0, ptr noundef %1, i64 noundef %2, i64 noundef %3) #0 align 2 {
  %5 = alloca ptr, align 8
  %6 = alloca ptr, align 8
  %7 = alloca i64, align 8
  %8 = alloca i64, align 8
  store ptr %0, ptr %5, align 8, !tbaa !3
  store ptr %1, ptr %6, align 8, !tbaa !28
  store i64 %2, ptr %7, align 8, !tbaa !32
  store i64 %3, ptr %8, align 8, !tbaa !32
  %9 = load ptr, ptr %5, align 8
  %10 = load ptr, ptr %6, align 8, !tbaa !28
  %11 = getelementptr inbounds nuw %"class.draco::GeometryAttribute", ptr %9, i32 0, i32 0
  store ptr %10, ptr %11, align 8, !tbaa !8
  %12 = load ptr, ptr %6, align 8, !tbaa !28
  %13 = call noundef i64 @_ZNK5draco10DataBuffer9buffer_idEv(ptr noundef nonnull align 8 dereferenceable(40) %12)
  %14 = getelementptr inbounds nuw %"class.draco::GeometryAttribute", ptr %9, i32 0, i32 1
  %15 = getelementptr inbounds nuw %"struct.draco::DataBufferDescriptor", ptr %14, i32 0, i32 0
  store i64 %13, ptr %15, align 8, !tbaa !33
  %16 = load ptr, ptr %6, align 8, !tbaa !28
  %17 = call noundef i64 @_ZNK5draco10DataBuffer12update_countEv(ptr noundef nonnull align 8 dereferenceable(40) %16)
  %18 = getelementptr inbounds nuw %"class.draco::GeometryAttribute", ptr %9, i32 0, i32 1
  %19 = getelementptr inbounds nuw %"struct.draco::DataBufferDescriptor", ptr %18, i32 0, i32 1
  store i64 %17, ptr %19, align 8, !tbaa !34
  %20 = load i64, ptr %7, align 8, !tbaa !32
  %21 = getelementptr inbounds nuw %"class.draco::GeometryAttribute", ptr %9, i32 0, i32 5
  store i64 %20, ptr %21, align 8, !tbaa !19
  %22 = load i64, ptr %8, align 8, !tbaa !32
  %23 = getelementptr inbounds nuw %"class.draco::GeometryAttribute", ptr %9, i32 0, i32 6
  store i64 %22, ptr %23, align 8, !tbaa !20
  ret void
}