; Function Attrs: mustprogress nofree norecurse nosync nounwind willreturn memory(argmem: readwrite) uwtable
define void @_ZN5draco17GeometryAttribute11ResetBufferEPNS_10DataBufferEll(ptr noundef nonnull writeonly align 8 captures(none) dereferenceable(64) initializes((0, 24), (40, 56)) %0, ptr noundef %1, i64 noundef %2, i64 noundef %3) local_unnamed_addr #1 align 2 {
  store ptr %1, ptr %0, align 8, !tbaa !18
  %5 = getelementptr inbounds nuw i8, ptr %1, i64 24
  %6 = load i64, ptr %5, align 8, !tbaa !19
  %7 = getelementptr inbounds nuw i8, ptr %0, i64 8
  store i64 %6, ptr %7, align 8, !tbaa !26
  %8 = getelementptr inbounds nuw i8, ptr %1, i64 32
  %9 = load i64, ptr %8, align 8, !tbaa !27
  %10 = getelementptr inbounds nuw i8, ptr %0, i64 16
  store i64 %9, ptr %10, align 8, !tbaa !28
  %11 = getelementptr inbounds nuw i8, ptr %0, i64 40
  store i64 %2, ptr %11, align 8, !tbaa !30
  %12 = getelementptr inbounds nuw i8, ptr %0, i64 48
  store i64 %3, ptr %12, align 8, !tbaa !31
  ret void
}